target datalayout = "e-m:e-p270:32:32-p271:32:32-p272:64:64-i64:64-i128:128-f80:128-n8:16:32:64-S128"
target triple = "x86_64-pc-linux-gnu"

%struct.H5FL_reg_head_t = type { i8, i32, i32, ptr, i64, ptr }
%struct.H5S_sel_iter_t = type { ptr, i32, [32 x i64], [32 x i64], i64, i64, i32, %union.anon.1 }
%union.anon.1 = type { %struct.H5S_hyper_iter_t }
%struct.H5S_hyper_iter_t = type { [32 x i64], [32 x i64], i32, i8, [32 x %struct.H5S_hyper_dim_t], [32 x i64], [32 x i64], [32 x i8], [32 x i64], ptr, [32 x ptr] }
%struct.H5S_hyper_dim_t = type { i64, i64, i64, i64 }
%struct.H5S_sel_iter_class_t = type { i32, ptr, ptr, ptr, ptr, ptr, ptr, ptr, ptr }

@H5_H5S_sel_iter_t_reg_free_list = global %struct.H5FL_reg_head_t { i8 0, i32 0, i32 0, ptr @.str, i64 3160, ptr null }, align 8
@.str.1 = private unnamed_addr constant [103 x i8] c"generated/home/dtcxzyw/WorkSpace/Projects/compilers/llvm-opt-benchmark/bench/hdf5/hdf5/src/H5Sselect.c\00", align 1
@H5E_DATASPACE_g = external global i64, align 8
@H5E_CANTRELEASE_g = external global i64, align 8
@.str.96 = private unnamed_addr constant [60 x i8] c"problem releasing a selection iterator's type-specific info\00", align 1
@__func__.H5S__sel_iter_close_cb = private unnamed_addr constant [23 x i8] c"H5S__sel_iter_close_cb\00", align 1
@H5E_CLOSEERROR_g = external global i64, align 8
@.str.98 = private unnamed_addr constant [35 x i8] c"unable to close selection iterator\00", align 1
@__func__.H5S_sel_iter_close = private unnamed_addr constant [19 x i8] c"H5S_sel_iter_close\00", align 1

; Function Attrs: nounwind uwtable
define i32 @H5S_sel_iter_close(ptr noundef %0) #0 {
  %2 = alloca ptr, align 8
  %3 = alloca i32, align 4
  %4 = alloca i8, align 1
  store ptr %0, ptr %2, align 8
  store i32 0, ptr %3, align 4
  store i8 0, ptr %4, align 1
  %5 = load ptr, ptr %2, align 8
  %6 = getelementptr inbounds %struct.H5S_sel_iter_t, ptr %5, i32 0, i32 0
  %7 = load ptr, ptr %6, align 8
  %8 = getelementptr inbounds %struct.H5S_sel_iter_class_t, ptr %7, i32 0, i32 8
  %9 = load ptr, ptr %8, align 8
  %10 = load ptr, ptr %2, align 8
  %11 = call i32 %9(ptr noundef %10)
  %12 = icmp slt i32 %11, 0
  br i1 %12, label %13, label %28

13:                                               ; preds = %1
  br label %14

14:                                               ; preds = %13
  br label %15

15:                                               ; preds = %14
  br label %16

16:                                               ; preds = %15
  %17 = load i64, ptr @H5E_DATASPACE_g, align 8
  %18 = load i64, ptr @H5E_CANTRELEASE_g, align 8
  %19 = call i32 (ptr, ptr, i32, i64, i64, ptr, ...) @H5E_printf_stack(ptr noundef @.str.1, ptr noundef @__func__.H5S_sel_iter_close, i32 noundef 3093, i64 noundef %17, i64 noundef %18, ptr noundef @.str.96)
  br label %20

20:                                               ; preds = %16
  store i8 1, ptr %4, align 1
  %21 = load i8, ptr %4, align 1
  %22 = trunc i8 %21 to i1
  %23 = zext i1 %22 to i8
  store i8 %23, ptr %4, align 1
  br label %24

24:                                               ; preds = %20
  br label %25

25:                                               ; preds = %24
  store i32 -1, ptr %3, align 4
  br label %31

26:                                               ; No predecessors!
  br label %27

27:                                               ; preds = %26
  br label %28

28:                                               ; preds = %27, %1
  %29 = load ptr, ptr %2, align 8
  %30 = call ptr @H5FL_reg_free(ptr noundef @H5_H5S_sel_iter_t_reg_free_list, ptr noundef %29)
  store ptr %30, ptr %2, align 8
  br label %31

31:                                               ; preds = %28, %25
  %32 = load i32, ptr %3, align 4
  ret i32 %32
}

; Function Attrs: nounwind uwtable
define i32 @H5S__sel_iter_close_cb(ptr noundef %0, ptr noundef %1) #0 {
  %3 = alloca ptr, align 8
  %4 = alloca ptr, align 8
  %5 = alloca ptr, align 8
  %6 = alloca i32, align 4
  %7 = alloca i8, align 1
  store ptr %0, ptr %3, align 8
  store ptr %1, ptr %4, align 8
  %8 = load ptr, ptr %3, align 8
  store ptr %8, ptr %5, align 8
  store i32 0, ptr %6, align 4
  store i8 0, ptr %7, align 1
  %9 = load ptr, ptr %5, align 8
  %10 = call i32 @H5S_sel_iter_close(ptr noundef %9)
  %11 = icmp slt i32 %10, 0
  br i1 %11, label %12, label %27

12:                                               ; preds = %2
  br label %13

13:                                               ; preds = %12
  br label %14

14:                                               ; preds = %13
  br label %15

15:                                               ; preds = %14
  %16 = load i64, ptr @H5E_DATASPACE_g, align 8
  %17 = load i64, ptr @H5E_CLOSEERROR_g, align 8
  %18 = call i32 (ptr, ptr, i32, i64, i64, ptr, ...) @H5E_printf_stack(ptr noundef @.str.1, ptr noundef @__func__.H5S__sel_iter_close_cb, i32 noundef 3065, i64 noundef %16, i64 noundef %17, ptr noundef @.str.98)
  br label %19

19:                                               ; preds = %15
  store i8 1, ptr %7, align 1
  %20 = load i8, ptr %7, align 1
  %21 = trunc i8 %20 to i1
  %22 = zext i1 %21 to i8
  store i8 %22, ptr %7, align 1
  br label %23

23:                                               ; preds = %19
  br label %24

24:                                               ; preds = %23
  store i32 -1, ptr %6, align 4
  br label %28

25:                                               ; No predecessors!
  br label %26

26:                                               ; preds = %25
  br label %27

27:                                               ; preds = %26, %2
  br label %28

28:                                               ; preds = %27, %24
  %29 = load i32, ptr %6, align 4
  ret i32 %29
}