; Function Attrs: nounwind uwtable
define range(i32 -1, 1) i32 @H5S__sel_iter_close_cb(ptr noundef %0, ptr nocapture noundef readnone %1) local_unnamed_addr #3 {
  %3 = load ptr, ptr %0, align 8
  %4 = getelementptr inbounds i8, ptr %3, i64 64
  %5 = load ptr, ptr %4, align 8
  %6 = tail call i32 %5(ptr noundef nonnull %0) #7
  %7 = icmp slt i32 %6, 0
  br i1 %7, label %9, label %H5S_sel_iter_close.exit

H5S_sel_iter_close.exit:                          ; preds = %2
  %8 = tail call ptr @H5FL_reg_free(ptr noundef nonnull @H5_H5S_sel_iter_t_reg_free_list, ptr noundef nonnull %0) #7
  br label %16

9:                                                ; preds = %2
  %10 = load i64, ptr @H5E_DATASPACE_g, align 8
  %11 = load i64, ptr @H5E_CANTRELEASE_g, align 8
  %12 = tail call i32 (ptr, ptr, i32, i64, i64, ptr, ...) @H5E_printf_stack(ptr noundef nonnull @.str.1, ptr noundef nonnull @__func__.H5S_sel_iter_close, i32 noundef 3093, i64 noundef %10, i64 noundef %11, ptr noundef nonnull @.str.96) #7
  %13 = load i64, ptr @H5E_DATASPACE_g, align 8
  %14 = load i64, ptr @H5E_CLOSEERROR_g, align 8
  %15 = tail call i32 (ptr, ptr, i32, i64, i64, ptr, ...) @H5E_printf_stack(ptr noundef nonnull @.str.1, ptr noundef nonnull @__func__.H5S__sel_iter_close_cb, i32 noundef 3065, i64 noundef %13, i64 noundef %14, ptr noundef nonnull @.str.98) #7
  br label %16

16:                                               ; preds = %H5S_sel_iter_close.exit, %9
  %.0 = phi i32 [ -1, %9 ], [ 0, %H5S_sel_iter_close.exit ]
  ret i32 %.0
}